; Function Attrs: mustprogress uwtable
define internal fastcc noundef zeroext i1 @_ZN7testing8internalL9ParseFlagINSt7__cxx1112basic_stringIcSt11char_traitsIcESaIcEEEEEbPKcS9_PT_(ptr noundef %0, ptr noundef %1, ptr noundef nonnull %2) unnamed_addr #3 {
  %4 = tail call fastcc noundef ptr @_ZN7testing8internalL14ParseFlagValueEPKcS2_b(ptr noundef %0, ptr noundef %1, i1 noundef zeroext false)
  %5 = icmp ne ptr %4, null
  br i1 %5, label %6, label %11

6:                                                ; preds = %3
  %7 = getelementptr inbounds nuw i8, ptr %2, i64 8
  %8 = load i64, ptr %7, align 8, !tbaa !25
  %9 = tail call noundef i64 @strlen(ptr noundef nonnull dereferenceable(1) %4) #57
  %10 = tail call noundef nonnull align 8 dereferenceable(32) ptr @_ZNSt7__cxx1112basic_stringIcSt11char_traitsIcESaIcEE10_M_replaceEmmPKcm(ptr noundef nonnull align 8 dereferenceable(32) %2, i64 noundef 0, i64 noundef %8, ptr noundef nonnull %4, i64 noundef %9)
  br label %11

11:                                               ; preds = %3, %6
  ret i1 %5
}